; Function Attrs: mustprogress nofree norecurse nosync nounwind sspstrong willreturn memory(read, inaccessiblemem: none) uwtable
define noundef ptr @_ZN3tbb6detail2r117thread_dispatcher18select_next_clientEPNS1_24thread_dispatcher_clientE(ptr noundef nonnull readonly align 8 dereferenceable(152) %0, ptr noundef readonly %1) local_unnamed_addr #7 align 2 {
  %.not = icmp eq ptr %1, null
  br i1 %.not, label %.lr.ph.preheader, label %3

3:                                                ; preds = %2
  %4 = getelementptr inbounds nuw i8, ptr %1, i64 16
  %5 = load ptr, ptr %4, align 8, !tbaa !39
  %6 = getelementptr inbounds nuw i8, ptr %5, i64 220
  %7 = load i32, ptr %6, align 4, !tbaa !42
  %.not1415.not = icmp eq i32 %7, 0
  br i1 %.not1415.not, label %._crit_edge, label %.lr.ph.preheader

.lr.ph.preheader:                                 ; preds = %2, %3
  %.01122 = phi i32 [ %7, %3 ], [ 3, %2 ]
  %8 = getelementptr inbounds nuw i8, ptr %0, i64 16
  %wide.trip.count = zext i32 %.01122 to i64
  br label %.lr.ph

9:                                                ; preds = %.lr.ph
  %indvars.iv.next = add nuw nsw i64 %indvars.iv, 1
  %exitcond.not = icmp eq i64 %indvars.iv.next, %wide.trip.count
  br i1 %exitcond.not, label %._crit_edge, label %.lr.ph, !llvm.loop !73

.lr.ph:                                           ; preds = %.lr.ph.preheader, %9
  %indvars.iv = phi i64 [ 0, %.lr.ph.preheader ], [ %indvars.iv.next, %9 ]
  %10 = getelementptr inbounds nuw [3 x %"class.tbb::detail::r1::intrusive_list"], ptr %8, i64 0, i64 %indvars.iv
  %11 = getelementptr inbounds nuw i8, ptr %10, i64 8
  %12 = load ptr, ptr %11, align 8, !tbaa !15
  %13 = icmp eq ptr %12, %10
  br i1 %13, label %9, label %._crit_edge

._crit_edge:                                      ; preds = %9, %.lr.ph, %3
  %spec.select = phi ptr [ %1, %3 ], [ %12, %.lr.ph ], [ %1, %9 ]
  ret ptr %spec.select
}